; Function Attrs: null_pointer_is_valid sspstrong uwtable
define internal noundef zeroext i1 @parseLogFileHeaderLine_valueSeparator(ptr noundef writeonly captures(none) %0, ptr noundef readonly captures(none) %1, ptr noundef writeonly captures(none) %2, ptr noundef writeonly captures(none) %3) #0 {
  %5 = getelementptr inbounds nuw i8, ptr %0, i64 84
  %6 = tail call i64 @strlen(ptr noundef readonly %1) #12
  %7 = icmp eq i64 %6, 3
  br i1 %7, label %8, label %23

8:                                                ; preds = %4
  %9 = load i8, ptr %1, align 1
  %.not.i = icmp eq i8 %9, 34
  br i1 %.not.i, label %10, label %21

10:                                               ; preds = %8
  %11 = load ptr, ptr @g_ascii_table, align 8
  %12 = getelementptr i8, ptr %1, i64 1
  %13 = load i8, ptr %12, align 1
  %14 = zext i8 %13 to i64
  %15 = getelementptr i16, ptr %11, i64 %14
  %16 = load i16, ptr %15, align 2
  %17 = and i16 %16, 64
  %.not11.i = icmp eq i16 %17, 0
  br i1 %.not11.i, label %21, label %18

18:                                               ; preds = %10
  %19 = getelementptr i8, ptr %1, i64 2
  %20 = load i8, ptr %19, align 1
  %.not12.i = icmp eq i8 %20, 34
  br i1 %.not12.i, label %23, label %21

21:                                               ; preds = %18, %10, %8
  store i32 -13, ptr %2, align 4
  %22 = tail call noalias ptr (ptr, ptr, ...) @wmem_strdup_printf(ptr noundef null, ptr noundef nonnull @.str.33, ptr noundef nonnull @.str.32)
  store ptr %22, ptr %3, align 8
  br label %parseSeparator.exit

23:                                               ; preds = %18, %4
  %.0.i = phi i8 [ 0, %4 ], [ %13, %18 ]
  store i8 %.0.i, ptr %5, align 1
  br label %parseSeparator.exit

parseSeparator.exit:                              ; preds = %21, %23
  %.010.i = phi i1 [ false, %21 ], [ true, %23 ]
  ret i1 %.010.i
}